; Function Attrs: mustprogress nofree norecurse nosync nounwind willreturn memory(read, inaccessiblemem: none) uwtable
define dso_local { i64, ptr } @_ZNK4llvm6object14WasmObjectFile15section_rel_endENS0_11DataRefImplE(ptr noundef nonnull align 8 dereferenceable(684) %0, i64 %1) unnamed_addr #5 align 2 {
  %3 = getelementptr inbounds nuw i8, ptr %0, i64 72
  %4 = and i64 %1, 4294967295
  %5 = load ptr, ptr %3, align 8
  %6 = getelementptr inbounds %"struct.llvm::object::WasmSection", ptr %5, i64 %4, i32 6
  %7 = getelementptr inbounds nuw i8, ptr %6, i64 8
  %8 = load ptr, ptr %7, align 8
  %9 = load ptr, ptr %6, align 8
  %10 = ptrtoint ptr %8 to i64
  %11 = ptrtoint ptr %9 to i64
  %12 = sub i64 %10, %11
  %13 = sdiv exact i64 %12, 24
  %.sroa.3.0.insert.ext = shl i64 %13, 32
  %.sroa.04.0.insert.insert = or disjoint i64 %.sroa.3.0.insert.ext, %4
  %.fca.0.insert = insertvalue { i64, ptr } poison, i64 %.sroa.04.0.insert.insert, 0
  %.fca.1.insert = insertvalue { i64, ptr } %.fca.0.insert, ptr %0, 1
  ret { i64, ptr } %.fca.1.insert
}